target datalayout = "e-m:e-p270:32:32-p271:32:32-p272:64:64-i64:64-i128:128-f80:128-n8:16:32:64-S128"
target triple = "x86_64-unknown-linux-gnu"

%struct.aiString = type { i32, [1024 x i8] }
%struct.aiNode = type { %struct.aiString, %class.aiMatrix4x4t, ptr, i32, ptr, i32, ptr, ptr }
%class.aiMatrix4x4t = type { float, float, float, float, float, float, float, float, float, float, float, float, float, float, float, float }

; Function Attrs: mustprogress nounwind uwtable
define hidden void @_Z24RemoveSingleNodeFromListP6aiNode(ptr noundef %nd) #0 {
entry:
  %nd.addr = alloca ptr, align 8
  %par = alloca ptr, align 8
  %i = alloca i32, align 4
  store ptr %nd, ptr %nd.addr, align 8
  %0 = load ptr, ptr %nd.addr, align 8
  %tobool = icmp ne ptr %0, null
  br i1 %tobool, label %lor.lhs.false, label %if.then

lor.lhs.false:                                    ; preds = %entry
  %1 = load ptr, ptr %nd.addr, align 8
  %mNumChildren = getelementptr inbounds %struct.aiNode, ptr %1, i32 0, i32 3
  %2 = load i32, ptr %mNumChildren, align 8
  %tobool1 = icmp ne i32 %2, 0
  br i1 %tobool1, label %if.then, label %lor.lhs.false2

lor.lhs.false2:                                   ; preds = %lor.lhs.false
  %3 = load ptr, ptr %nd.addr, align 8
  %mParent = getelementptr inbounds %struct.aiNode, ptr %3, i32 0, i32 2
  %4 = load ptr, ptr %mParent, align 8
  %tobool3 = icmp ne ptr %4, null
  br i1 %tobool3, label %if.end, label %if.then

if.then:                                          ; preds = %lor.lhs.false2, %lor.lhs.false, %entry
  br label %for.end22

if.end:                                           ; preds = %lor.lhs.false2
  %5 = load ptr, ptr %nd.addr, align 8
  %mParent4 = getelementptr inbounds %struct.aiNode, ptr %5, i32 0, i32 2
  %6 = load ptr, ptr %mParent4, align 8
  store ptr %6, ptr %par, align 8
  store i32 0, ptr %i, align 4
  br label %for.cond

for.cond:                                         ; preds = %for.inc20, %if.end
  %7 = load i32, ptr %i, align 4
  %8 = load ptr, ptr %par, align 8
  %mNumChildren5 = getelementptr inbounds %struct.aiNode, ptr %8, i32 0, i32 3
  %9 = load i32, ptr %mNumChildren5, align 8
  %cmp = icmp ult i32 %7, %9
  br i1 %cmp, label %for.body, label %for.end22

for.body:                                         ; preds = %for.cond
  %10 = load ptr, ptr %par, align 8
  %mChildren = getelementptr inbounds %struct.aiNode, ptr %10, i32 0, i32 4
  %11 = load ptr, ptr %mChildren, align 8
  %12 = load i32, ptr %i, align 4
  %idxprom = zext i32 %12 to i64
  %arrayidx = getelementptr inbounds ptr, ptr %11, i64 %idxprom
  %13 = load ptr, ptr %arrayidx, align 8
  %14 = load ptr, ptr %nd.addr, align 8
  %cmp6 = icmp eq ptr %13, %14
  br i1 %cmp6, label %if.then7, label %if.end19

if.then7:                                         ; preds = %for.body
  %15 = load ptr, ptr %par, align 8
  %mNumChildren8 = getelementptr inbounds %struct.aiNode, ptr %15, i32 0, i32 3
  %16 = load i32, ptr %mNumChildren8, align 8
  %dec = add i32 %16, -1
  store i32 %dec, ptr %mNumChildren8, align 8
  br label %for.cond9

for.cond9:                                        ; preds = %for.inc, %if.then7
  %17 = load i32, ptr %i, align 4
  %18 = load ptr, ptr %par, align 8
  %mNumChildren10 = getelementptr inbounds %struct.aiNode, ptr %18, i32 0, i32 3
  %19 = load i32, ptr %mNumChildren10, align 8
  %cmp11 = icmp ult i32 %17, %19
  br i1 %cmp11, label %for.body12, label %for.end

for.body12:                                       ; preds = %for.cond9
  %20 = load ptr, ptr %par, align 8
  %mChildren13 = getelementptr inbounds %struct.aiNode, ptr %20, i32 0, i32 4
  %21 = load ptr, ptr %mChildren13, align 8
  %22 = load i32, ptr %i, align 4
  %add = add i32 %22, 1
  %idxprom14 = zext i32 %add to i64
  %arrayidx15 = getelementptr inbounds ptr, ptr %21, i64 %idxprom14
  %23 = load ptr, ptr %arrayidx15, align 8
  %24 = load ptr, ptr %par, align 8
  %mChildren16 = getelementptr inbounds %struct.aiNode, ptr %24, i32 0, i32 4
  %25 = load ptr, ptr %mChildren16, align 8
  %26 = load i32, ptr %i, align 4
  %idxprom17 = zext i32 %26 to i64
  %arrayidx18 = getelementptr inbounds ptr, ptr %25, i64 %idxprom17
  store ptr %23, ptr %arrayidx18, align 8
  br label %for.inc

for.inc:                                          ; preds = %for.body12
  %27 = load i32, ptr %i, align 4
  %inc = add i32 %27, 1
  store i32 %inc, ptr %i, align 4
  br label %for.cond9, !llvm.loop !12

for.end:                                          ; preds = %for.cond9
  %28 = load ptr, ptr %nd.addr, align 8
  %isnull = icmp eq ptr %28, null
  br i1 %isnull, label %delete.end, label %delete.notnull

delete.notnull:                                   ; preds = %for.end
  call void @_ZN6aiNodeD1Ev(ptr noundef nonnull align 8 dereferenceable(1144) %28) #14
  call void @_ZdlPv(ptr noundef %28) #17
  br label %delete.end

delete.end:                                       ; preds = %delete.notnull, %for.end
  br label %for.end22

if.end19:                                         ; preds = %for.body
  br label %for.inc20

for.inc20:                                        ; preds = %if.end19
  %29 = load i32, ptr %i, align 4
  %inc21 = add i32 %29, 1
  store i32 %inc21, ptr %i, align 4
  br label %for.cond, !llvm.loop !13

for.end22:                                        ; preds = %delete.end, %for.cond, %if.then
  ret void
}