; Function Attrs: mustprogress nounwind uwtable
define hidden void @_Z24RemoveSingleNodeFromListP6aiNode(ptr noundef %nd) local_unnamed_addr #3 {
entry:
  %tobool.not = icmp eq ptr %nd, null
  br i1 %tobool.not, label %for.end22, label %lor.lhs.false

lor.lhs.false:                                    ; preds = %entry
  %mNumChildren = getelementptr inbounds i8, ptr %nd, i64 1104
  %0 = load i32, ptr %mNumChildren, align 8
  %tobool1.not = icmp eq i32 %0, 0
  br i1 %tobool1.not, label %lor.lhs.false2, label %for.end22

lor.lhs.false2:                                   ; preds = %lor.lhs.false
  %mParent = getelementptr inbounds i8, ptr %nd, i64 1096
  %1 = load ptr, ptr %mParent, align 8
  %tobool3.not = icmp eq ptr %1, null
  br i1 %tobool3.not, label %for.end22, label %for.cond.preheader

for.cond.preheader:                               ; preds = %lor.lhs.false2
  %mNumChildren5 = getelementptr inbounds i8, ptr %1, i64 1104
  %2 = load i32, ptr %mNumChildren5, align 8
  %cmp21.not = icmp eq i32 %2, 0
  br i1 %cmp21.not, label %for.end22, label %for.body.lr.ph

for.body.lr.ph:                                   ; preds = %for.cond.preheader
  %mChildren = getelementptr inbounds i8, ptr %1, i64 1112
  %3 = load ptr, ptr %mChildren, align 8
  %wide.trip.count = zext i32 %2 to i64
  br label %for.body

for.body:                                         ; preds = %for.body.lr.ph, %for.inc20
  %indvars.iv = phi i64 [ 0, %for.body.lr.ph ], [ %indvars.iv.next, %for.inc20 ]
  %arrayidx = getelementptr inbounds ptr, ptr %3, i64 %indvars.iv
  %4 = load ptr, ptr %arrayidx, align 8
  %cmp6 = icmp eq ptr %4, %nd
  br i1 %cmp6, label %if.then7, label %for.inc20

if.then7:                                         ; preds = %for.body
  %5 = trunc i64 %indvars.iv to i32
  %dec = add i32 %2, -1
  store i32 %dec, ptr %mNumChildren5, align 8
  %cmp1123 = icmp ugt i32 %dec, %5
  br i1 %cmp1123, label %for.body12, label %delete.notnull

for.body12:                                       ; preds = %if.then7, %for.body12
  %indvars.iv28 = phi i64 [ %indvars.iv.next29, %for.body12 ], [ %indvars.iv, %if.then7 ]
  %6 = load ptr, ptr %mChildren, align 8
  %indvars.iv.next29 = add nuw nsw i64 %indvars.iv28, 1
  %arrayidx15 = getelementptr inbounds ptr, ptr %6, i64 %indvars.iv.next29
  %7 = load ptr, ptr %arrayidx15, align 8
  %arrayidx18 = getelementptr inbounds ptr, ptr %6, i64 %indvars.iv28
  store ptr %7, ptr %arrayidx18, align 8
  %8 = load i32, ptr %mNumChildren5, align 8
  %9 = zext i32 %8 to i64
  %cmp11 = icmp ult i64 %indvars.iv.next29, %9
  br i1 %cmp11, label %for.body12, label %delete.notnull, !llvm.loop !35

delete.notnull:                                   ; preds = %for.body12, %if.then7
  tail call void @_ZN6aiNodeD1Ev(ptr noundef nonnull align 8 dereferenceable(1144) %nd) #17
  tail call void @_ZdlPv(ptr noundef %nd) #20
  br label %for.end22

for.inc20:                                        ; preds = %for.body
  %indvars.iv.next = add nuw nsw i64 %indvars.iv, 1
  %exitcond.not = icmp eq i64 %indvars.iv.next, %wide.trip.count
  br i1 %exitcond.not, label %for.end22, label %for.body, !llvm.loop !36

for.end22:                                        ; preds = %for.inc20, %for.cond.preheader, %delete.notnull, %entry, %lor.lhs.false, %lor.lhs.false2
  ret void
}